; Function Attrs: mustprogress nofree norecurse nosync nounwind willreturn memory(read, argmem: readwrite, inaccessiblemem: none) uwtable
define void @_ZN5arrow7compute15QuantileOptionsC2ESt6vectorIdSaIdEENS1_13InterpolationEbj(ptr noundef nonnull writeonly align 8 captures(none) dereferenceable(52) initializes((0, 45), (48, 52)) %0, ptr noundef captures(none) %1, i32 noundef %2, i1 noundef zeroext %3, i32 noundef %4) unnamed_addr #4 align 2 {
  %6 = zext i1 %3 to i8
  %7 = load ptr, ptr @_ZN5arrow7compute8internal12_GLOBAL__N_120kQuantileOptionsTypeE, align 8, !tbaa !32
  %8 = getelementptr inbounds nuw i8, ptr %0, i64 8
  store ptr %7, ptr %8, align 8, !tbaa !35
  store ptr getelementptr inbounds nuw inrange(-16, 16) (i8, ptr @_ZTVN5arrow7compute15QuantileOptionsE, i64 16), ptr %0, align 8, !tbaa !37
  %9 = getelementptr inbounds nuw i8, ptr %0, i64 16
  %10 = load ptr, ptr %1, align 8, !tbaa !54
  store ptr %10, ptr %9, align 8, !tbaa !54
  %11 = getelementptr inbounds nuw i8, ptr %0, i64 24
  %12 = getelementptr inbounds nuw i8, ptr %1, i64 8
  %13 = load ptr, ptr %12, align 8, !tbaa !58
  store ptr %13, ptr %11, align 8, !tbaa !58
  %14 = getelementptr inbounds nuw i8, ptr %0, i64 32
  %15 = getelementptr inbounds nuw i8, ptr %1, i64 16
  %16 = load ptr, ptr %15, align 8, !tbaa !57
  store ptr %16, ptr %14, align 8, !tbaa !57
  tail call void @llvm.memset.p0.i64(ptr noundef nonnull align 8 dereferenceable(24) %1, i8 0, i64 24, i1 false)
  %17 = getelementptr inbounds nuw i8, ptr %0, i64 40
  store i32 %2, ptr %17, align 8, !tbaa !59
  %18 = getelementptr inbounds nuw i8, ptr %0, i64 44
  store i8 %6, ptr %18, align 4, !tbaa !65
  %19 = getelementptr inbounds nuw i8, ptr %0, i64 48
  store i32 %4, ptr %19, align 8, !tbaa !66
  ret void
}